(lp1
(i__main__
Source
p2
(dp3
S'target_dir'
p4
S'/home/daniel/Music/transcode/artists.ogg-q5'
p5
sS'base_dir'
p6
S'/home/daniel/Music/library/artists.flac'
p7
sba(i__main__
Source
p8
(dp9
g4
S'/home/daniel/Music/transcode/compilations.ogg-q5'
p10
sg6
S'/home/daniel/Music/library/compilations.flac'
p11
sba.